target datalayout = "e-m:e-p270:32:32-p271:32:32-p272:64:64-i64:64-i128:128-f80:128-n8:16:32:64-S128"
target triple = "x86_64-pc-linux-gnu"

%"struct.std::array" = type { [2 x i64] }
%"class.folly::Range" = type { ptr, ptr }
%"class.folly::Range.0" = type { ptr, ptr }

; Function Attrs: mustprogress nounwind uwtable
define linkonce_odr noundef nonnull align 8 dereferenceable(8) ptr @_ZNSt14__array_traitsImLm2EE6_S_refERA2_Kmm(ptr noundef nonnull align 8 dereferenceable(16) %0, i64 noundef %1) #3 comdat align 2 {
  %3 = alloca ptr, align 8
  %4 = alloca i64, align 8
  store ptr %0, ptr %3, align 8, !tbaa !27
  store i64 %1, ptr %4, align 8, !tbaa !15
  %5 = load ptr, ptr %3, align 8, !tbaa !27
  %6 = load i64, ptr %4, align 8, !tbaa !15
  %7 = getelementptr inbounds nuw [2 x i64], ptr %5, i64 0, i64 %6
  ret ptr %7
}

; Function Attrs: mustprogress nounwind uwtable
define linkonce_odr noundef ptr @_ZNK5folly5RangeIPKcE3endEv(ptr noundef nonnull align 8 dereferenceable(16) %0) #3 comdat align 2 {
  %2 = alloca ptr, align 8
  store ptr %0, ptr %2, align 8, !tbaa !17
  %3 = load ptr, ptr %2, align 8
  %4 = getelementptr inbounds nuw %"class.folly::Range", ptr %3, i32 0, i32 1
  %5 = load ptr, ptr %4, align 8, !tbaa !26
  ret ptr %5
}

; Function Attrs: mustprogress nounwind uwtable
define linkonce_odr noundef ptr @_ZNK5folly5RangeIPKcE5beginEv(ptr noundef nonnull align 8 dereferenceable(16) %0) #3 comdat align 2 {
  %2 = alloca ptr, align 8
  store ptr %0, ptr %2, align 8, !tbaa !17
  %3 = load ptr, ptr %2, align 8
  %4 = getelementptr inbounds nuw %"class.folly::Range", ptr %3, i32 0, i32 0
  %5 = load ptr, ptr %4, align 8, !tbaa !24
  ret ptr %5
}

; Function Attrs: mustprogress nounwind uwtable
define linkonce_odr noundef nonnull align 8 dereferenceable(8) ptr @_ZNSt5arrayImLm2EEixEm(ptr noundef nonnull align 8 dereferenceable(16) %0, i64 noundef %1) #3 comdat align 2 {
  %3 = alloca ptr, align 8
  %4 = alloca i64, align 8
  store ptr %0, ptr %3, align 8, !tbaa !22
  store i64 %1, ptr %4, align 8, !tbaa !15
  %5 = load ptr, ptr %3, align 8
  %6 = getelementptr inbounds nuw %"struct.std::array", ptr %5, i32 0, i32 0
  %7 = load i64, ptr %4, align 8, !tbaa !15
  %8 = call noundef nonnull align 8 dereferenceable(8) ptr @_ZNSt14__array_traitsImLm2EE6_S_refERA2_Kmm(ptr noundef nonnull align 8 dereferenceable(16) %6, i64 noundef %7) #33
  ret ptr %8
}

; Function Attrs: mustprogress nounwind uwtable
define linkonce_odr noundef ptr @_ZNK5folly5RangeIPKhE3endEv(ptr noundef nonnull align 8 dereferenceable(16) %0) #3 comdat align 2 {
  %2 = alloca ptr, align 8
  store ptr %0, ptr %2, align 8, !tbaa !7
  %3 = load ptr, ptr %2, align 8
  %4 = getelementptr inbounds nuw %"class.folly::Range.0", ptr %3, i32 0, i32 1
  %5 = load ptr, ptr %4, align 8, !tbaa !21
  ret ptr %5
}

; Function Attrs: mustprogress nounwind uwtable
define linkonce_odr noundef ptr @_ZNK5folly5RangeIPKhE5beginEv(ptr noundef nonnull align 8 dereferenceable(16) %0) #3 comdat align 2 {
  %2 = alloca ptr, align 8
  store ptr %0, ptr %2, align 8, !tbaa !7
  %3 = load ptr, ptr %2, align 8
  %4 = getelementptr inbounds nuw %"class.folly::Range.0", ptr %3, i32 0, i32 0
  %5 = load ptr, ptr %4, align 8, !tbaa !19
  ret ptr %5
}

; Function Attrs: mustprogress uwtable
define linkonce_odr void @_ZN5folly5RangeIPKhEC2IPKcTnNSt9enable_ifIXaaL_ZNSt17integral_constantIbLb1EE5valueEEoosr3std7is_sameIT_S6_EE5valuesr3std7is_sameISA_PcEE5valueEiE4typeELi0EEERKNS0_ISA_EE(ptr noundef nonnull align 8 dereferenceable(16) %0, ptr noundef nonnull align 8 dereferenceable(16) %1) unnamed_addr #0 comdat align 2 {
  %3 = alloca ptr, align 8
  %4 = alloca ptr, align 8
  store ptr %0, ptr %3, align 8, !tbaa !7
  store ptr %1, ptr %4, align 8, !tbaa !17
  %5 = load ptr, ptr %3, align 8
  %6 = getelementptr inbounds nuw %"class.folly::Range.0", ptr %5, i32 0, i32 0
  %7 = load ptr, ptr %4, align 8, !tbaa !17
  %8 = call noundef ptr @_ZNK5folly5RangeIPKcE5beginEv(ptr noundef nonnull align 8 dereferenceable(16) %7)
  store ptr %8, ptr %6, align 8, !tbaa !19
  %9 = getelementptr inbounds nuw %"class.folly::Range.0", ptr %5, i32 0, i32 1
  %10 = load ptr, ptr %4, align 8, !tbaa !17
  %11 = call noundef ptr @_ZNK5folly5RangeIPKcE3endEv(ptr noundef nonnull align 8 dereferenceable(16) %10)
  store ptr %11, ptr %9, align 8, !tbaa !21
  ret void
}

; Function Attrs: mustprogress uwtable
define { i64, i64 } @_ZN5folly4json29buildExtraAsciiToEscapeBitmapENS_5RangeIPKcEE(ptr %0, ptr %1) #0 {
  %3 = alloca %"struct.std::array", align 8
  %4 = alloca %"class.folly::Range", align 8
  %5 = alloca ptr, align 8
  %6 = alloca %"class.folly::Range.0", align 8
  %7 = alloca ptr, align 8
  %8 = alloca ptr, align 8
  %9 = alloca i8, align 1
  %10 = getelementptr inbounds nuw { ptr, ptr }, ptr %4, i32 0, i32 0
  store ptr %0, ptr %10, align 8
  %11 = getelementptr inbounds nuw { ptr, ptr }, ptr %4, i32 0, i32 1
  store ptr %1, ptr %11, align 8
  call void @llvm.memset.p0.i64(ptr align 8 %3, i8 0, i64 16, i1 false)
  call void @llvm.lifetime.start.p0(i64 8, ptr %5) #33
  call void @llvm.lifetime.start.p0(i64 16, ptr %6) #33
  call void @_ZN5folly5RangeIPKhEC2IPKcTnNSt9enable_ifIXaaL_ZNSt17integral_constantIbLb1EE5valueEEoosr3std7is_sameIT_S6_EE5valuesr3std7is_sameISA_PcEE5valueEiE4typeELi0EEERKNS0_ISA_EE(ptr noundef nonnull align 8 dereferenceable(16) %6, ptr noundef nonnull align 8 dereferenceable(16) %4)
  store ptr %6, ptr %5, align 8, !tbaa !7
  call void @llvm.lifetime.start.p0(i64 8, ptr %7) #33
  %12 = load ptr, ptr %5, align 8, !tbaa !7
  %13 = call noundef ptr @_ZNK5folly5RangeIPKhE5beginEv(ptr noundef nonnull align 8 dereferenceable(16) %12)
  store ptr %13, ptr %7, align 8, !tbaa !12
  call void @llvm.lifetime.start.p0(i64 8, ptr %8) #33
  %14 = load ptr, ptr %5, align 8, !tbaa !7
  %15 = call noundef ptr @_ZNK5folly5RangeIPKhE3endEv(ptr noundef nonnull align 8 dereferenceable(16) %14)
  store ptr %15, ptr %8, align 8, !tbaa !12
  br label %16

16:                                               ; preds = %45, %2
  %17 = load ptr, ptr %7, align 8, !tbaa !12
  %18 = load ptr, ptr %8, align 8, !tbaa !12
  %19 = icmp ne ptr %17, %18
  br i1 %19, label %21, label %20

20:                                               ; preds = %16
  call void @llvm.lifetime.end.p0(i64 8, ptr %8) #33
  call void @llvm.lifetime.end.p0(i64 8, ptr %7) #33
  call void @llvm.lifetime.end.p0(i64 16, ptr %6) #33
  call void @llvm.lifetime.end.p0(i64 8, ptr %5) #33
  br label %48

21:                                               ; preds = %16
  call void @llvm.lifetime.start.p0(i64 1, ptr %9) #33
  %22 = load ptr, ptr %7, align 8, !tbaa !12
  %23 = load i8, ptr %22, align 1, !tbaa !14
  store i8 %23, ptr %9, align 1, !tbaa !14
  %24 = load i8, ptr %9, align 1, !tbaa !14
  %25 = zext i8 %24 to i32
  %26 = icmp sge i32 %25, 32
  br i1 %26, label %27, label %44

27:                                               ; preds = %21
  %28 = load i8, ptr %9, align 1, !tbaa !14
  %29 = zext i8 %28 to i32
  %30 = icmp slt i32 %29, 128
  br i1 %30, label %31, label %44

31:                                               ; preds = %27
  %32 = load i8, ptr %9, align 1, !tbaa !14
  %33 = zext i8 %32 to i32
  %34 = srem i32 %33, 64
  %35 = zext i32 %34 to i64
  %36 = shl i64 1, %35
  %37 = load i8, ptr %9, align 1, !tbaa !14
  %38 = zext i8 %37 to i32
  %39 = sdiv i32 %38, 64
  %40 = sext i32 %39 to i64
  %41 = call noundef nonnull align 8 dereferenceable(8) ptr @_ZNSt5arrayImLm2EEixEm(ptr noundef nonnull align 8 dereferenceable(16) %3, i64 noundef %40) #33
  %42 = load i64, ptr %41, align 8, !tbaa !15
  %43 = or i64 %42, %36
  store i64 %43, ptr %41, align 8, !tbaa !15
  br label %44

44:                                               ; preds = %31, %27, %21
  call void @llvm.lifetime.end.p0(i64 1, ptr %9) #33
  br label %45

45:                                               ; preds = %44
  %46 = load ptr, ptr %7, align 8, !tbaa !12
  %47 = getelementptr inbounds nuw i8, ptr %46, i32 1
  store ptr %47, ptr %7, align 8, !tbaa !12
  br label %16

48:                                               ; preds = %20
  %49 = getelementptr inbounds nuw %"struct.std::array", ptr %3, i32 0, i32 0
  %50 = load { i64, i64 }, ptr %49, align 8
  ret { i64, i64 } %50
}