; Function Attrs: mustprogress nofree norecurse nosync nounwind willreturn memory(argmem: read) uwtable
define { i64, i64 } @_ZN5folly4json29buildExtraAsciiToEscapeBitmapENS_5RangeIPKcEE(ptr readonly captures(address) %0, ptr readnone captures(address) %1) local_unnamed_addr #0 {
  %3 = alloca %"struct.std::array", align 8
  call void @llvm.memset.p0.i64(ptr noundef nonnull align 8 dereferenceable(16) %3, i8 0, i64 16, i1 false)
  %.not13 = icmp eq ptr %0, %1
  br i1 %.not13, label %._crit_edge, label %.lr.ph

._crit_edge.loopexit:                             ; preds = %15
  %.fca.0.load.pre = load i64, ptr %3, align 8
  %.fca.1.gep.phi.trans.insert = getelementptr inbounds nuw i8, ptr %3, i64 8
  %.fca.1.load.pre = load i64, ptr %.fca.1.gep.phi.trans.insert, align 8
  br label %._crit_edge

._crit_edge:                                      ; preds = %._crit_edge.loopexit, %2
  %.fca.1.load = phi i64 [ %.fca.1.load.pre, %._crit_edge.loopexit ], [ 0, %2 ]
  %.fca.0.load = phi i64 [ %.fca.0.load.pre, %._crit_edge.loopexit ], [ 0, %2 ]
  %.fca.0.insert = insertvalue { i64, i64 } poison, i64 %.fca.0.load, 0
  %.fca.1.insert = insertvalue { i64, i64 } %.fca.0.insert, i64 %.fca.1.load, 1
  ret { i64, i64 } %.fca.1.insert

.lr.ph:                                           ; preds = %2, %15
  %.014 = phi ptr [ %16, %15 ], [ %0, %2 ]
  %4 = load i8, ptr %.014, align 1, !tbaa !7
  %or.cond = icmp sgt i8 %4, 31
  br i1 %or.cond, label %5, label %15

5:                                                ; preds = %.lr.ph
  %6 = zext nneg i8 %4 to i32
  %7 = and i32 %6, 63
  %8 = zext nneg i32 %7 to i64
  %9 = shl nuw i64 1, %8
  %10 = lshr i32 %6, 6
  %11 = zext nneg i32 %10 to i64
  %12 = getelementptr inbounds nuw [2 x i64], ptr %3, i64 0, i64 %11
  %13 = load i64, ptr %12, align 8, !tbaa !10
  %14 = or i64 %13, %9
  store i64 %14, ptr %12, align 8, !tbaa !10
  br label %15

15:                                               ; preds = %5, %.lr.ph
  %16 = getelementptr inbounds nuw i8, ptr %.014, i64 1
  %.not = icmp eq ptr %16, %1
  br i1 %.not, label %._crit_edge.loopexit, label %.lr.ph
}